; Function Attrs: mustprogress nofree norecurse nosync nounwind willreturn memory(argmem: readwrite) uwtable
define void @_ZN3gmx15EnergySignallerC2ESt6vectorISt8functionIFvldEESaIS4_EES6_S6_iiiNS_25EnergySignallerVirialModeE(ptr nocapture noundef nonnull writeonly align 8 dereferenceable(144) %0, ptr nocapture noundef %1, ptr nocapture noundef %2, ptr nocapture noundef %3, i32 noundef %4, i32 noundef %5, i32 noundef %6, i32 noundef %7) unnamed_addr #6 align 2 {
  %9 = getelementptr inbounds i8, ptr %0, i64 8
  %10 = getelementptr inbounds i8, ptr %0, i64 16
  store ptr getelementptr inbounds inrange(-16, 48) ({ [8 x ptr], [5 x ptr], [5 x ptr] }, ptr @_ZTVN3gmx15EnergySignallerE, i64 0, i32 0, i64 2), ptr %0, align 8
  store ptr getelementptr inbounds inrange(-16, 24) ({ [8 x ptr], [5 x ptr], [5 x ptr] }, ptr @_ZTVN3gmx15EnergySignallerE, i64 0, i32 1, i64 2), ptr %9, align 8
  store ptr getelementptr inbounds inrange(-16, 24) ({ [8 x ptr], [5 x ptr], [5 x ptr] }, ptr @_ZTVN3gmx15EnergySignallerE, i64 0, i32 2, i64 2), ptr %10, align 8
  %11 = getelementptr inbounds i8, ptr %0, i64 24
  %12 = load ptr, ptr %1, align 8
  store ptr %12, ptr %11, align 8
  %13 = getelementptr inbounds i8, ptr %0, i64 32
  %14 = getelementptr inbounds i8, ptr %1, i64 8
  %15 = load ptr, ptr %14, align 8
  store ptr %15, ptr %13, align 8
  %16 = getelementptr inbounds i8, ptr %0, i64 40
  %17 = getelementptr inbounds i8, ptr %1, i64 16
  %18 = load ptr, ptr %17, align 8
  store ptr %18, ptr %16, align 8
  tail call void @llvm.memset.p0.i64(ptr noundef nonnull align 8 dereferenceable(24) %1, i8 0, i64 24, i1 false)
  %19 = getelementptr inbounds i8, ptr %0, i64 48
  %20 = load ptr, ptr %2, align 8
  store ptr %20, ptr %19, align 8
  %21 = getelementptr inbounds i8, ptr %0, i64 56
  %22 = getelementptr inbounds i8, ptr %2, i64 8
  %23 = load ptr, ptr %22, align 8
  store ptr %23, ptr %21, align 8
  %24 = getelementptr inbounds i8, ptr %0, i64 64
  %25 = getelementptr inbounds i8, ptr %2, i64 16
  %26 = load ptr, ptr %25, align 8
  store ptr %26, ptr %24, align 8
  tail call void @llvm.memset.p0.i64(ptr noundef nonnull align 8 dereferenceable(24) %2, i8 0, i64 24, i1 false)
  %27 = getelementptr inbounds i8, ptr %0, i64 72
  %28 = load ptr, ptr %3, align 8
  store ptr %28, ptr %27, align 8
  %29 = getelementptr inbounds i8, ptr %0, i64 80
  %30 = getelementptr inbounds i8, ptr %3, i64 8
  %31 = load ptr, ptr %30, align 8
  store ptr %31, ptr %29, align 8
  %32 = getelementptr inbounds i8, ptr %0, i64 88
  %33 = getelementptr inbounds i8, ptr %3, i64 16
  %34 = load ptr, ptr %33, align 8
  store ptr %34, ptr %32, align 8
  tail call void @llvm.memset.p0.i64(ptr noundef nonnull align 8 dereferenceable(24) %3, i8 0, i64 24, i1 false)
  %35 = getelementptr inbounds i8, ptr %0, i64 96
  store i32 %4, ptr %35, align 8
  %36 = getelementptr inbounds i8, ptr %0, i64 100
  store i32 %5, ptr %36, align 4
  %37 = getelementptr inbounds i8, ptr %0, i64 104
  store i32 %6, ptr %37, align 8
  %38 = getelementptr inbounds i8, ptr %0, i64 108
  store i32 %7, ptr %38, align 4
  %39 = getelementptr inbounds i8, ptr %0, i64 112
  store i64 -1, ptr %39, align 8
  %40 = getelementptr inbounds i8, ptr %0, i64 120
  store i8 0, ptr %40, align 8
  %41 = getelementptr inbounds i8, ptr %0, i64 128
  store i64 -1, ptr %41, align 8
  %42 = getelementptr inbounds i8, ptr %0, i64 136
  store i8 0, ptr %42, align 8
  ret void
}